target datalayout = "e-m:e-p270:32:32-p271:32:32-p272:64:64-i64:64-i128:128-f80:128-n8:16:32:64-S128"
target triple = "x86_64-pc-linux-gnu"

%struct.nghttp2_session = type { %struct.nghttp2_map, %struct.nghttp2_outbound_queue, %struct.nghttp2_outbound_queue, %struct.nghttp2_outbound_queue, [8 x %struct.anon], %struct.nghttp2_active_outbound_item, %struct.nghttp2_inbound_frame, %struct.nghttp2_hd_deflater, %struct.nghttp2_hd_inflater, %struct.nghttp2_session_callbacks, %struct.nghttp2_mem, ptr, ptr, %struct.nghttp2_ratelim, i64, i64, i64, i64, i64, i64, i64, i64, i64, i64, i64, i64, i64, i64, i32, i32, i32, i32, i32, i32, i32, i32, i32, i32, i32, i32, i8, %struct.nghttp2_settings_storage, %struct.nghttp2_settings_storage, i32, i32, i32, i8, i8, i8, i8, i8, i8, [32 x i8] }
%struct.nghttp2_map = type { ptr, ptr, i64, i64 }
%struct.nghttp2_outbound_queue = type { ptr, ptr, i64 }
%struct.anon = type { %struct.nghttp2_pq }
%struct.nghttp2_pq = type { ptr, ptr, i64, i64, ptr }
%struct.nghttp2_active_outbound_item = type { ptr, %struct.nghttp2_bufs, i32 }
%struct.nghttp2_bufs = type { ptr, ptr, ptr, i64, i64, i64, i64, i64 }
%struct.nghttp2_inbound_frame = type { %union.nghttp2_frame, %union.nghttp2_ext_frame_payload, ptr, %struct.nghttp2_buf, %struct.nghttp2_buf, ptr, i64, i64, i64, i64, i32, [32 x i8] }
%union.nghttp2_frame = type { %struct.nghttp2_headers }
%struct.nghttp2_headers = type { %struct.nghttp2_frame_hd, i64, %struct.nghttp2_priority_spec, ptr, i64, i32 }
%struct.nghttp2_frame_hd = type { i64, i32, i8, i8, i8 }
%struct.nghttp2_priority_spec = type { i32, i32, i8 }
%union.nghttp2_ext_frame_payload = type { %struct.nghttp2_ext_altsvc }
%struct.nghttp2_ext_altsvc = type { ptr, i64, ptr, i64 }
%struct.nghttp2_buf = type { ptr, ptr, ptr, ptr, ptr }
%struct.nghttp2_hd_deflater = type { %struct.nghttp2_hd_context, %struct.nghttp2_hd_map, i64, i64, i8 }
%struct.nghttp2_hd_context = type { %struct.nghttp2_hd_ringbuf, ptr, i64, i64, i32, i8 }
%struct.nghttp2_hd_ringbuf = type { ptr, i64, i64, i64 }
%struct.nghttp2_hd_map = type { [128 x ptr] }
%struct.nghttp2_hd_inflater = type { %struct.nghttp2_hd_context, %struct.nghttp2_hd_huff_decode_context, %struct.nghttp2_buf, %struct.nghttp2_buf, ptr, ptr, ptr, ptr, i64, i64, i64, i64, i64, i32, i32, i8, i8, i8 }
%struct.nghttp2_hd_huff_decode_context = type { i16 }
%struct.nghttp2_session_callbacks = type { ptr, ptr, ptr, ptr, ptr, ptr, ptr, ptr, ptr, ptr, ptr, ptr, ptr, ptr, ptr, ptr, ptr, ptr, ptr, ptr, ptr, ptr, ptr, ptr, ptr, ptr, ptr, ptr }
%struct.nghttp2_mem = type { ptr, ptr, ptr, ptr, ptr }
%struct.nghttp2_ratelim = type { i64, i64, i64, i64 }
%struct.nghttp2_settings_storage = type { i32, i32, i32, i32, i32, i32, i32, i32 }

@.str.1 = private unnamed_addr constant [115 x i8] c"generated/home/dtcxzyw/WorkSpace/Projects/compilers/llvm-opt-benchmark/bench/nghttp2/nghttp2/lib/nghttp2_session.c\00", align 1
@.str.66 = private unnamed_addr constant [2 x i8] c"0\00", align 1
@__PRETTY_FUNCTION__.nghttp2_session_get_local_settings = private unnamed_addr constant [84 x i8] c"uint32_t nghttp2_session_get_local_settings(nghttp2_session *, nghttp2_settings_id)\00", align 1

; Function Attrs: nounwind uwtable
define i32 @nghttp2_session_get_local_settings(ptr noundef %0, i32 noundef %1) #0 {
  %3 = alloca i32, align 4
  %4 = alloca ptr, align 8
  %5 = alloca i32, align 4
  store ptr %0, ptr %4, align 8, !tbaa !7
  store i32 %1, ptr %5, align 4, !tbaa !3
  %6 = load i32, ptr %5, align 4, !tbaa !3
  switch i32 %6, label %47 [
    i32 1, label %7
    i32 2, label %12
    i32 3, label %17
    i32 4, label %22
    i32 5, label %27
    i32 6, label %32
    i32 8, label %37
    i32 9, label %42
  ]

7:                                                ; preds = %2
  %8 = load ptr, ptr %4, align 8, !tbaa !7
  %9 = getelementptr inbounds nuw %struct.nghttp2_session, ptr %8, i32 0, i32 42
  %10 = getelementptr inbounds nuw %struct.nghttp2_settings_storage, ptr %9, i32 0, i32 0
  %11 = load i32, ptr %10, align 4, !tbaa !176
  store i32 %11, ptr %3, align 4
  br label %48

12:                                               ; preds = %2
  %13 = load ptr, ptr %4, align 8, !tbaa !7
  %14 = getelementptr inbounds nuw %struct.nghttp2_session, ptr %13, i32 0, i32 42
  %15 = getelementptr inbounds nuw %struct.nghttp2_settings_storage, ptr %14, i32 0, i32 1
  %16 = load i32, ptr %15, align 4, !tbaa !177
  store i32 %16, ptr %3, align 4
  br label %48

17:                                               ; preds = %2
  %18 = load ptr, ptr %4, align 8, !tbaa !7
  %19 = getelementptr inbounds nuw %struct.nghttp2_session, ptr %18, i32 0, i32 42
  %20 = getelementptr inbounds nuw %struct.nghttp2_settings_storage, ptr %19, i32 0, i32 2
  %21 = load i32, ptr %20, align 4, !tbaa !168
  store i32 %21, ptr %3, align 4
  br label %48

22:                                               ; preds = %2
  %23 = load ptr, ptr %4, align 8, !tbaa !7
  %24 = getelementptr inbounds nuw %struct.nghttp2_session, ptr %23, i32 0, i32 42
  %25 = getelementptr inbounds nuw %struct.nghttp2_settings_storage, ptr %24, i32 0, i32 3
  %26 = load i32, ptr %25, align 4, !tbaa !131
  store i32 %26, ptr %3, align 4
  br label %48

27:                                               ; preds = %2
  %28 = load ptr, ptr %4, align 8, !tbaa !7
  %29 = getelementptr inbounds nuw %struct.nghttp2_session, ptr %28, i32 0, i32 42
  %30 = getelementptr inbounds nuw %struct.nghttp2_settings_storage, ptr %29, i32 0, i32 4
  %31 = load i32, ptr %30, align 4, !tbaa !178
  store i32 %31, ptr %3, align 4
  br label %48

32:                                               ; preds = %2
  %33 = load ptr, ptr %4, align 8, !tbaa !7
  %34 = getelementptr inbounds nuw %struct.nghttp2_session, ptr %33, i32 0, i32 42
  %35 = getelementptr inbounds nuw %struct.nghttp2_settings_storage, ptr %34, i32 0, i32 5
  %36 = load i32, ptr %35, align 4, !tbaa !179
  store i32 %36, ptr %3, align 4
  br label %48

37:                                               ; preds = %2
  %38 = load ptr, ptr %4, align 8, !tbaa !7
  %39 = getelementptr inbounds nuw %struct.nghttp2_session, ptr %38, i32 0, i32 42
  %40 = getelementptr inbounds nuw %struct.nghttp2_settings_storage, ptr %39, i32 0, i32 6
  %41 = load i32, ptr %40, align 4, !tbaa !180
  store i32 %41, ptr %3, align 4
  br label %48

42:                                               ; preds = %2
  %43 = load ptr, ptr %4, align 8, !tbaa !7
  %44 = getelementptr inbounds nuw %struct.nghttp2_session, ptr %43, i32 0, i32 42
  %45 = getelementptr inbounds nuw %struct.nghttp2_settings_storage, ptr %44, i32 0, i32 7
  %46 = load i32, ptr %45, align 4, !tbaa !181
  store i32 %46, ptr %3, align 4
  br label %48

47:                                               ; preds = %2
  call void @__assert_fail(ptr noundef @.str.66, ptr noundef @.str.1, i32 noundef 7464, ptr noundef @__PRETTY_FUNCTION__.nghttp2_session_get_local_settings) #12
  unreachable

48:                                               ; preds = %42, %37, %32, %27, %22, %17, %12, %7
  %49 = load i32, ptr %3, align 4
  ret i32 %49
}